target datalayout = "e-m:e-p270:32:32-p271:32:32-p272:64:64-i64:64-i128:128-f80:128-n8:16:32:64-S128"
target triple = "x86_64-pc-linux-gnu"

%struct.ident_t = type { i32, i32, i32, i32, ptr }

@1 = private unnamed_addr constant %struct.ident_t { i32 0, i32 514, i32 0, i32 22, ptr @0 }, align 8
@2 = private unnamed_addr constant %struct.ident_t { i32 0, i32 66, i32 0, i32 22, ptr @0 }, align 8

; Function Attrs: inlinehint nounwind uwtable
define internal i32 @extractBit(i32 noundef %0, i64 noundef %1) #7 {
  %3 = alloca i32, align 4
  %4 = alloca i64, align 8
  store i32 %0, ptr %3, align 4, !tbaa !8
  store i64 %1, ptr %4, align 8, !tbaa !4
  %5 = load i64, ptr %4, align 8, !tbaa !4
  %6 = load i32, ptr %3, align 4, !tbaa !8
  %7 = zext i32 %6 to i64
  %8 = shl i64 1, %7
  %9 = and i64 %5, %8
  %10 = load i32, ptr %3, align 4, !tbaa !8
  %11 = zext i32 %10 to i64
  %12 = ashr i64 %9, %11
  %13 = trunc i64 %12 to i32
  ret i32 %13
}

; Function Attrs: alwaysinline norecurse nounwind uwtable
define internal void @statevec_controlledPauliYDistributed.omp_outlined(ptr noalias noundef %0, ptr noalias noundef %1, ptr noundef nonnull align 8 dereferenceable(8) %2, ptr noundef nonnull align 4 dereferenceable(4) %3, ptr noundef nonnull align 8 dereferenceable(8) %4, ptr noundef nonnull align 8 dereferenceable(8) %5, ptr noundef nonnull align 8 dereferenceable(8) %6, ptr noundef nonnull align 4 dereferenceable(4) %7, ptr noundef nonnull align 8 dereferenceable(8) %8, ptr noundef nonnull align 8 dereferenceable(8) %9, ptr noundef nonnull align 8 dereferenceable(8) %10) #2 {
  %12 = alloca ptr, align 8
  %13 = alloca ptr, align 8
  %14 = alloca ptr, align 8
  %15 = alloca ptr, align 8
  %16 = alloca ptr, align 8
  %17 = alloca ptr, align 8
  %18 = alloca ptr, align 8
  %19 = alloca ptr, align 8
  %20 = alloca ptr, align 8
  %21 = alloca ptr, align 8
  %22 = alloca ptr, align 8
  %23 = alloca i32, align 4
  %24 = alloca i64, align 8
  %25 = alloca i64, align 8
  %26 = alloca i64, align 8
  %27 = alloca i64, align 8
  %28 = alloca i64, align 8
  %29 = alloca i64, align 8
  %30 = alloca i64, align 8
  %31 = alloca i32, align 4
  %32 = alloca i64, align 8
  store ptr %0, ptr %12, align 8, !tbaa !19
  store ptr %1, ptr %13, align 8, !tbaa !19
  store ptr %2, ptr %14, align 8, !tbaa !21
  store ptr %3, ptr %15, align 8, !tbaa !19
  store ptr %4, ptr %16, align 8, !tbaa !21
  store ptr %5, ptr %17, align 8, !tbaa !21
  store ptr %6, ptr %18, align 8, !tbaa !33
  store ptr %7, ptr %19, align 8, !tbaa !19
  store ptr %8, ptr %20, align 8, !tbaa !33
  store ptr %9, ptr %21, align 8, !tbaa !33
  store ptr %10, ptr %22, align 8, !tbaa !33
  %33 = load ptr, ptr %14, align 8, !tbaa !21
  %34 = load ptr, ptr %15, align 8, !tbaa !19
  %35 = load ptr, ptr %16, align 8, !tbaa !21
  %36 = load ptr, ptr %17, align 8, !tbaa !21
  %37 = load ptr, ptr %18, align 8, !tbaa !33
  %38 = load ptr, ptr %19, align 8, !tbaa !19
  %39 = load ptr, ptr %20, align 8, !tbaa !33
  %40 = load ptr, ptr %21, align 8, !tbaa !33
  %41 = load ptr, ptr %22, align 8, !tbaa !33
  call void @llvm.lifetime.start.p0(i64 4, ptr %23) #3
  call void @llvm.lifetime.start.p0(i64 8, ptr %24) #3
  call void @llvm.lifetime.start.p0(i64 8, ptr %25) #3
  %42 = load i64, ptr %33, align 8, !tbaa !4
  store i64 %42, ptr %25, align 8, !tbaa !4
  call void @llvm.lifetime.start.p0(i64 8, ptr %26) #3
  %43 = load i64, ptr %25, align 8, !tbaa !4
  %44 = sub nsw i64 %43, 0
  %45 = sdiv i64 %44, 1
  %46 = sub nsw i64 %45, 1
  store i64 %46, ptr %26, align 8, !tbaa !4
  call void @llvm.lifetime.start.p0(i64 8, ptr %27) #3
  store i64 0, ptr %27, align 8, !tbaa !4
  call void @llvm.lifetime.end.p0(i64 8, ptr %27) #3
  %47 = load i64, ptr %25, align 8, !tbaa !4
  %48 = icmp slt i64 0, %47
  br i1 %48, label %49, label %112

49:                                               ; preds = %11
  call void @llvm.lifetime.start.p0(i64 8, ptr %28) #3
  store i64 0, ptr %28, align 8, !tbaa !4
  call void @llvm.lifetime.start.p0(i64 8, ptr %29) #3
  %50 = load i64, ptr %26, align 8, !tbaa !4
  store i64 %50, ptr %29, align 8, !tbaa !4
  call void @llvm.lifetime.start.p0(i64 8, ptr %30) #3
  store i64 1, ptr %30, align 8, !tbaa !4
  call void @llvm.lifetime.start.p0(i64 4, ptr %31) #3
  store i32 0, ptr %31, align 4, !tbaa !8
  call void @llvm.lifetime.start.p0(i64 8, ptr %32) #3
  %51 = load ptr, ptr %12, align 8
  %52 = load i32, ptr %51, align 4, !tbaa !8
  call void @__kmpc_for_static_init_8(ptr @1, i32 %52, i32 34, ptr %31, ptr %28, ptr %29, ptr %30, i64 1, i64 1)
  %53 = load i64, ptr %29, align 8, !tbaa !4
  %54 = load i64, ptr %26, align 8, !tbaa !4
  %55 = icmp sgt i64 %53, %54
  br i1 %55, label %56, label %58

56:                                               ; preds = %49
  %57 = load i64, ptr %26, align 8, !tbaa !4
  br label %60

58:                                               ; preds = %49
  %59 = load i64, ptr %29, align 8, !tbaa !4
  br label %60

60:                                               ; preds = %58, %56
  %61 = phi i64 [ %57, %56 ], [ %59, %58 ]
  store i64 %61, ptr %29, align 8, !tbaa !4
  %62 = load i64, ptr %28, align 8, !tbaa !4
  store i64 %62, ptr %24, align 8, !tbaa !4
  br label %63

63:                                               ; preds = %105, %60
  %64 = load i64, ptr %24, align 8, !tbaa !4
  %65 = load i64, ptr %29, align 8, !tbaa !4
  %66 = icmp sle i64 %64, %65
  br i1 %66, label %68, label %67

67:                                               ; preds = %63
  br label %108

68:                                               ; preds = %63
  %69 = load i64, ptr %24, align 8, !tbaa !4
  %70 = mul nsw i64 %69, 1
  %71 = add nsw i64 0, %70
  store i64 %71, ptr %32, align 8, !tbaa !4
  %72 = load i32, ptr %34, align 4, !tbaa !8
  %73 = load i64, ptr %32, align 8, !tbaa !4
  %74 = load i64, ptr %35, align 8, !tbaa !4
  %75 = load i64, ptr %36, align 8, !tbaa !4
  %76 = mul nsw i64 %74, %75
  %77 = add nsw i64 %73, %76
  %78 = call i32 @extractBit(i32 noundef %72, i64 noundef %77)
  store i32 %78, ptr %23, align 4, !tbaa !8
  %79 = load i32, ptr %23, align 4, !tbaa !8
  %80 = icmp ne i32 %79, 0
  br i1 %80, label %81, label %103

81:                                               ; preds = %68
  %82 = load i32, ptr %38, align 4, !tbaa !8
  %83 = sitofp i32 %82 to double
  %84 = load ptr, ptr %39, align 8, !tbaa !25
  %85 = load i64, ptr %32, align 8, !tbaa !4
  %86 = getelementptr inbounds double, ptr %84, i64 %85
  %87 = load double, ptr %86, align 8, !tbaa !10
  %88 = fmul double %83, %87
  %89 = load ptr, ptr %37, align 8, !tbaa !25
  %90 = load i64, ptr %32, align 8, !tbaa !4
  %91 = getelementptr inbounds double, ptr %89, i64 %90
  store double %88, ptr %91, align 8, !tbaa !10
  %92 = load i32, ptr %38, align 4, !tbaa !8
  %93 = sitofp i32 %92 to double
  %94 = load ptr, ptr %41, align 8, !tbaa !25
  %95 = load i64, ptr %32, align 8, !tbaa !4
  %96 = getelementptr inbounds double, ptr %94, i64 %95
  %97 = load double, ptr %96, align 8, !tbaa !10
  %98 = fneg double %97
  %99 = fmul double %93, %98
  %100 = load ptr, ptr %40, align 8, !tbaa !25
  %101 = load i64, ptr %32, align 8, !tbaa !4
  %102 = getelementptr inbounds double, ptr %100, i64 %101
  store double %99, ptr %102, align 8, !tbaa !10
  br label %103

103:                                              ; preds = %81, %68
  br label %104

104:                                              ; preds = %103
  br label %105

105:                                              ; preds = %104
  %106 = load i64, ptr %24, align 8, !tbaa !4
  %107 = add nsw i64 %106, 1
  store i64 %107, ptr %24, align 8, !tbaa !4
  br label %63

108:                                              ; preds = %67
  br label %109

109:                                              ; preds = %108
  %110 = load ptr, ptr %12, align 8
  %111 = load i32, ptr %110, align 4, !tbaa !8
  call void @__kmpc_for_static_fini(ptr @1, i32 %111)
  call void @llvm.lifetime.end.p0(i64 8, ptr %32) #3
  call void @llvm.lifetime.end.p0(i64 4, ptr %31) #3
  call void @llvm.lifetime.end.p0(i64 8, ptr %30) #3
  call void @llvm.lifetime.end.p0(i64 8, ptr %29) #3
  call void @llvm.lifetime.end.p0(i64 8, ptr %28) #3
  br label %112

112:                                              ; preds = %109, %11
  call void @llvm.lifetime.end.p0(i64 8, ptr %26) #3
  call void @llvm.lifetime.end.p0(i64 8, ptr %25) #3
  call void @llvm.lifetime.end.p0(i64 8, ptr %24) #3
  %113 = load ptr, ptr %12, align 8
  %114 = load i32, ptr %113, align 4, !tbaa !8
  call void @__kmpc_barrier(ptr @2, i32 %114)
  call void @llvm.lifetime.end.p0(i64 4, ptr %23) #3
  ret void
}