; Function Attrs: alwaysinline norecurse nounwind uwtable
define internal void @statevec_controlledPauliYDistributed.omp_outlined(ptr noalias noundef readonly captures(none) %0, ptr noalias readnone captures(none) %1, ptr noundef nonnull readonly align 8 captures(none) dereferenceable(8) %2, ptr noundef nonnull readonly align 4 captures(none) dereferenceable(4) %3, ptr noundef nonnull readonly align 8 captures(none) dereferenceable(8) %4, ptr noundef nonnull readonly align 8 captures(none) dereferenceable(8) %5, ptr noundef nonnull readonly align 8 captures(none) dereferenceable(8) %6, ptr noundef nonnull readonly align 4 captures(none) dereferenceable(4) %7, ptr noundef nonnull readonly align 8 captures(none) dereferenceable(8) %8, ptr noundef nonnull readonly align 8 captures(none) dereferenceable(8) %9, ptr noundef nonnull readonly align 8 captures(none) dereferenceable(8) %10) #3 {
  %12 = alloca i64, align 8
  %13 = alloca i64, align 8
  %14 = alloca i64, align 8
  %15 = alloca i32, align 4
  %16 = load i64, ptr %2, align 8, !tbaa !16
  %17 = icmp sgt i64 %16, 0
  %.pre = load i32, ptr %0, align 4, !tbaa !18
  br i1 %17, label %18, label %52

18:                                               ; preds = %11
  %19 = add nsw i64 %16, -1
  call void @llvm.lifetime.start.p0(i64 8, ptr nonnull %12) #4
  store i64 0, ptr %12, align 8, !tbaa !16
  call void @llvm.lifetime.start.p0(i64 8, ptr nonnull %13) #4
  store i64 %19, ptr %13, align 8, !tbaa !16
  call void @llvm.lifetime.start.p0(i64 8, ptr nonnull %14) #4
  store i64 1, ptr %14, align 8, !tbaa !16
  call void @llvm.lifetime.start.p0(i64 4, ptr nonnull %15) #4
  store i32 0, ptr %15, align 4, !tbaa !18
  call void @__kmpc_for_static_init_8(ptr nonnull @1, i32 %.pre, i32 34, ptr nonnull %15, ptr nonnull %12, ptr nonnull %13, ptr nonnull %14, i64 1, i64 1)
  %20 = load i64, ptr %13, align 8, !tbaa !16
  %21 = call i64 @llvm.smin.i64(i64 %20, i64 %19)
  store i64 %21, ptr %13, align 8, !tbaa !16
  %22 = load i64, ptr %12, align 8, !tbaa !16
  %.not26 = icmp sgt i64 %22, %21
  br i1 %.not26, label %._crit_edge, label %.lr.ph

.lr.ph:                                           ; preds = %18
  %23 = load i32, ptr %3, align 4, !tbaa !18
  %24 = load i64, ptr %4, align 8, !tbaa !16
  %25 = load i64, ptr %5, align 8, !tbaa !16
  %26 = mul nsw i64 %25, %24
  %27 = zext i32 %23 to i64
  %28 = shl nuw i64 1, %27
  %29 = load i32, ptr %7, align 4
  %30 = sitofp i32 %29 to double
  %31 = load ptr, ptr %8, align 8
  %32 = load ptr, ptr %6, align 8
  %33 = load ptr, ptr %10, align 8
  %34 = load ptr, ptr %9, align 8
  br label %35

35:                                               ; preds = %.lr.ph, %50
  %.027 = phi i64 [ %22, %.lr.ph ], [ %51, %50 ]
  %36 = add nsw i64 %26, %.027
  %37 = and i64 %36, %28
  %38 = ashr i64 %37, %27
  %39 = and i64 %38, 4294967295
  %.not25 = icmp eq i64 %39, 0
  br i1 %.not25, label %50, label %40

40:                                               ; preds = %35
  %41 = getelementptr inbounds double, ptr %31, i64 %.027
  %42 = load double, ptr %41, align 8, !tbaa !4
  %43 = fmul double %42, %30
  %44 = getelementptr inbounds double, ptr %32, i64 %.027
  store double %43, ptr %44, align 8, !tbaa !4
  %45 = getelementptr inbounds double, ptr %33, i64 %.027
  %46 = load double, ptr %45, align 8, !tbaa !4
  %47 = fneg double %46
  %48 = fmul double %30, %47
  %49 = getelementptr inbounds double, ptr %34, i64 %.027
  store double %48, ptr %49, align 8, !tbaa !4
  br label %50

50:                                               ; preds = %40, %35
  %51 = add i64 %.027, 1
  %exitcond.not = icmp eq i64 %.027, %21
  br i1 %exitcond.not, label %._crit_edge, label %35

._crit_edge:                                      ; preds = %50, %18
  call void @__kmpc_for_static_fini(ptr nonnull @1, i32 %.pre)
  call void @llvm.lifetime.end.p0(i64 4, ptr nonnull %15) #4
  call void @llvm.lifetime.end.p0(i64 8, ptr nonnull %14) #4
  call void @llvm.lifetime.end.p0(i64 8, ptr nonnull %13) #4
  call void @llvm.lifetime.end.p0(i64 8, ptr nonnull %12) #4
  br label %52

52:                                               ; preds = %._crit_edge, %11
  call void @__kmpc_barrier(ptr nonnull @2, i32 %.pre)
  ret void
}